; Function Attrs: nounwind uwtable
define dso_local range(i64 -32768, 32769) i64 @int24div(ptr noundef readonly captures(none) %0) local_unnamed_addr #0 {
  %2 = getelementptr inbounds nuw i8, ptr %0, i64 48
  %3 = load i64, ptr %2, align 8
  %4 = trunc i64 %3 to i32
  %5 = icmp eq i32 %4, 0
  br i1 %5, label %6, label %10, !prof !14

6:                                                ; preds = %1
  %7 = tail call zeroext i1 @errstart_cold(i32 noundef 21, ptr noundef null) #15
  tail call void @llvm.assume(i1 %7)
  %8 = tail call i32 @errcode(i32 noundef 33816706) #13
  %9 = tail call i32 (ptr, ...) @errmsg(ptr noundef nonnull @.str.8) #13
  tail call void @errfinish(ptr noundef nonnull @.str.2, i32 noundef 1039, ptr noundef nonnull @__func__.int24div) #13
  unreachable

10:                                               ; preds = %1
  %11 = getelementptr inbounds nuw i8, ptr %0, i64 32
  %12 = load i64, ptr %11, align 8
  %13 = trunc i64 %12 to i32
  %sext = shl i32 %13, 16
  %14 = ashr exact i32 %sext, 16
  %15 = sdiv i32 %14, %4
  %16 = sext i32 %15 to i64
  ret i64 %16
}